; Function Attrs: mustprogress nounwind uwtable
define internal fastcc noundef ptr @_ZN12_GLOBAL__N_110ValueTable16createMemoryExprIN4llvm8LoadInstEEEPNS_18InstructionUseExprEPT_(ptr noundef nonnull align 8 dereferenceable(544) %0, ptr noundef %1) unnamed_addr #0 align 2 {
  %3 = getelementptr inbounds nuw i8, ptr %1, i64 2
  %4 = load i16, ptr %3, align 2
  %5 = lshr i16 %4, 7
  %6 = and i16 %5, 7
  %7 = zext nneg i16 %6 to i64
  %8 = getelementptr inbounds [8 x [8 x i8]], ptr @_ZZN4llvm14isStrongerThanENS_14AtomicOrderingES0_E6lookup, i64 0, i64 %7, i64 1
  %9 = load i8, ptr %8, align 1
  %10 = trunc i8 %9 to i1
  br i1 %10, label %19, label %11

11:                                               ; preds = %2
  %12 = tail call noundef zeroext i1 @_ZNK4llvm11Instruction8isAtomicEv(ptr noundef nonnull align 8 dereferenceable(72) %1) #20
  br i1 %12, label %19, label %13

13:                                               ; preds = %11
  %14 = tail call fastcc noundef ptr @_ZN12_GLOBAL__N_110ValueTable10createExprEPN4llvm11InstructionE(ptr noundef nonnull align 8 dereferenceable(544) %0, ptr noundef nonnull %1)
  %15 = load i16, ptr %3, align 2
  %16 = trunc i16 %15 to i8
  %17 = and i8 %16, 1
  %18 = getelementptr inbounds nuw i8, ptr %14, i64 52
  store i8 %17, ptr %18, align 4
  br label %19

19:                                               ; preds = %2, %11, %13
  %.0 = phi ptr [ %14, %13 ], [ null, %11 ], [ null, %2 ]
  ret ptr %.0
}